target datalayout = "e-m:e-p270:32:32-p271:32:32-p272:64:64-i64:64-i128:128-f80:128-n8:16:32:64-S128"
target triple = "x86_64-pc-linux-gnu"

%struct.Gli_Man_t_ = type { ptr, ptr, ptr, ptr, ptr, i32, i32, i32, i32, i32, ptr, ptr }
%struct.Vec_Int_t_ = type { i32, i32, ptr }
%struct.Gli_Obj_t_ = type { i32, i32, ptr, i32, %union.anon, %union.anon.0, [0 x i32] }
%union.anon = type { i32 }
%union.anon.0 = type { i32 }

; Function Attrs: inlinehint nounwind uwtable
define internal void @Vec_IntGrow(ptr noundef %0, i32 noundef %1) #3 {
  %3 = alloca ptr, align 8
  %4 = alloca i32, align 4
  store ptr %0, ptr %3, align 8, !tbaa !21
  store i32 %1, ptr %4, align 4, !tbaa !3
  %5 = load ptr, ptr %3, align 8, !tbaa !21
  %6 = getelementptr inbounds nuw %struct.Vec_Int_t_, ptr %5, i32 0, i32 0
  %7 = load i32, ptr %6, align 8, !tbaa !24
  %8 = load i32, ptr %4, align 4, !tbaa !3
  %9 = icmp sge i32 %7, %8
  br i1 %9, label %10, label %11

10:                                               ; preds = %2
  br label %36

11:                                               ; preds = %2
  %12 = load ptr, ptr %3, align 8, !tbaa !21
  %13 = getelementptr inbounds nuw %struct.Vec_Int_t_, ptr %12, i32 0, i32 2
  %14 = load ptr, ptr %13, align 8, !tbaa !25
  %15 = icmp ne ptr %14, null
  br i1 %15, label %16, label %24

16:                                               ; preds = %11
  %17 = load ptr, ptr %3, align 8, !tbaa !21
  %18 = getelementptr inbounds nuw %struct.Vec_Int_t_, ptr %17, i32 0, i32 2
  %19 = load ptr, ptr %18, align 8, !tbaa !25
  %20 = load i32, ptr %4, align 4, !tbaa !3
  %21 = sext i32 %20 to i64
  %22 = mul i64 4, %21
  %23 = call ptr @realloc(ptr noundef %19, i64 noundef %22) #14
  br label %29

24:                                               ; preds = %11
  %25 = load i32, ptr %4, align 4, !tbaa !3
  %26 = sext i32 %25 to i64
  %27 = mul i64 4, %26
  %28 = call noalias ptr @malloc(i64 noundef %27) #12
  br label %29

29:                                               ; preds = %24, %16
  %30 = phi ptr [ %23, %16 ], [ %28, %24 ]
  %31 = load ptr, ptr %3, align 8, !tbaa !21
  %32 = getelementptr inbounds nuw %struct.Vec_Int_t_, ptr %31, i32 0, i32 2
  store ptr %30, ptr %32, align 8, !tbaa !25
  %33 = load i32, ptr %4, align 4, !tbaa !3
  %34 = load ptr, ptr %3, align 8, !tbaa !21
  %35 = getelementptr inbounds nuw %struct.Vec_Int_t_, ptr %34, i32 0, i32 0
  store i32 %33, ptr %35, align 8, !tbaa !24
  br label %36

36:                                               ; preds = %29, %10
  ret void
}

; Function Attrs: inlinehint nounwind uwtable
define internal i32 @Gli_ObjSize(ptr noundef %0) #3 {
  %2 = alloca ptr, align 8
  store ptr %0, ptr %2, align 8, !tbaa !27
  %3 = load ptr, ptr %2, align 8, !tbaa !27
  %4 = load i32, ptr %3, align 8
  %5 = lshr i32 %4, 4
  %6 = and i32 %5, 7
  %7 = zext i32 %6 to i64
  %8 = add i64 8, %7
  %9 = load ptr, ptr %2, align 8, !tbaa !27
  %10 = load i32, ptr %9, align 8
  %11 = lshr i32 %10, 7
  %12 = zext i32 %11 to i64
  %13 = add i64 %8, %12
  %14 = trunc i64 %13 to i32
  ret i32 %14
}

; Function Attrs: inlinehint nounwind uwtable
define internal ptr @Gli_ManObj(ptr noundef %0, i32 noundef %1) #3 {
  %3 = alloca ptr, align 8
  %4 = alloca i32, align 4
  store ptr %0, ptr %3, align 8, !tbaa !7
  store i32 %1, ptr %4, align 4, !tbaa !3
  %5 = load ptr, ptr %3, align 8, !tbaa !7
  %6 = getelementptr inbounds nuw %struct.Gli_Man_t_, ptr %5, i32 0, i32 10
  %7 = load ptr, ptr %6, align 8, !tbaa !20
  %8 = load i32, ptr %4, align 4, !tbaa !3
  %9 = sext i32 %8 to i64
  %10 = getelementptr inbounds i32, ptr %7, i64 %9
  ret ptr %10
}

; Function Attrs: inlinehint nounwind uwtable
define internal void @Vec_IntPush(ptr noundef %0, i32 noundef %1) #3 {
  %3 = alloca ptr, align 8
  %4 = alloca i32, align 4
  store ptr %0, ptr %3, align 8, !tbaa !21
  store i32 %1, ptr %4, align 4, !tbaa !3
  %5 = load ptr, ptr %3, align 8, !tbaa !21
  %6 = getelementptr inbounds nuw %struct.Vec_Int_t_, ptr %5, i32 0, i32 1
  %7 = load i32, ptr %6, align 4, !tbaa !22
  %8 = load ptr, ptr %3, align 8, !tbaa !21
  %9 = getelementptr inbounds nuw %struct.Vec_Int_t_, ptr %8, i32 0, i32 0
  %10 = load i32, ptr %9, align 8, !tbaa !24
  %11 = icmp eq i32 %7, %10
  br i1 %11, label %12, label %26

12:                                               ; preds = %2
  %13 = load ptr, ptr %3, align 8, !tbaa !21
  %14 = getelementptr inbounds nuw %struct.Vec_Int_t_, ptr %13, i32 0, i32 0
  %15 = load i32, ptr %14, align 8, !tbaa !24
  %16 = icmp slt i32 %15, 16
  br i1 %16, label %17, label %19

17:                                               ; preds = %12
  %18 = load ptr, ptr %3, align 8, !tbaa !21
  call void @Vec_IntGrow(ptr noundef %18, i32 noundef 16)
  br label %25

19:                                               ; preds = %12
  %20 = load ptr, ptr %3, align 8, !tbaa !21
  %21 = load ptr, ptr %3, align 8, !tbaa !21
  %22 = getelementptr inbounds nuw %struct.Vec_Int_t_, ptr %21, i32 0, i32 0
  %23 = load i32, ptr %22, align 8, !tbaa !24
  %24 = mul nsw i32 2, %23
  call void @Vec_IntGrow(ptr noundef %20, i32 noundef %24)
  br label %25

25:                                               ; preds = %19, %17
  br label %26

26:                                               ; preds = %25, %2
  %27 = load i32, ptr %4, align 4, !tbaa !3
  %28 = load ptr, ptr %3, align 8, !tbaa !21
  %29 = getelementptr inbounds nuw %struct.Vec_Int_t_, ptr %28, i32 0, i32 2
  %30 = load ptr, ptr %29, align 8, !tbaa !25
  %31 = load ptr, ptr %3, align 8, !tbaa !21
  %32 = getelementptr inbounds nuw %struct.Vec_Int_t_, ptr %31, i32 0, i32 1
  %33 = load i32, ptr %32, align 4, !tbaa !22
  %34 = add nsw i32 %33, 1
  store i32 %34, ptr %32, align 4, !tbaa !22
  %35 = sext i32 %33 to i64
  %36 = getelementptr inbounds i32, ptr %30, i64 %35
  store i32 %27, ptr %36, align 4, !tbaa !3
  ret void
}

; Function Attrs: nounwind uwtable
define ptr @Gli_ObjAlloc(ptr noundef %0, i32 noundef %1, i32 noundef %2) #0 {
  %4 = alloca ptr, align 8
  %5 = alloca i32, align 4
  %6 = alloca i32, align 4
  %7 = alloca ptr, align 8
  store ptr %0, ptr %4, align 8, !tbaa !7
  store i32 %1, ptr %5, align 4, !tbaa !3
  store i32 %2, ptr %6, align 4, !tbaa !3
  call void @llvm.lifetime.start.p0(i64 8, ptr %7) #10
  %8 = load ptr, ptr %4, align 8, !tbaa !7
  %9 = load ptr, ptr %4, align 8, !tbaa !7
  %10 = getelementptr inbounds nuw %struct.Gli_Man_t_, ptr %9, i32 0, i32 8
  %11 = load i32, ptr %10, align 4, !tbaa !38
  %12 = call ptr @Gli_ManObj(ptr noundef %8, i32 noundef %11)
  store ptr %12, ptr %7, align 8, !tbaa !27
  %13 = load ptr, ptr %4, align 8, !tbaa !7
  %14 = getelementptr inbounds nuw %struct.Gli_Man_t_, ptr %13, i32 0, i32 8
  %15 = load i32, ptr %14, align 4, !tbaa !38
  %16 = load ptr, ptr %7, align 8, !tbaa !27
  %17 = getelementptr inbounds nuw %struct.Gli_Obj_t_, ptr %16, i32 0, i32 1
  store i32 %15, ptr %17, align 4, !tbaa !29
  %18 = load i32, ptr %5, align 4, !tbaa !3
  %19 = load ptr, ptr %7, align 8, !tbaa !27
  %20 = load i32, ptr %19, align 8
  %21 = and i32 %18, 7
  %22 = shl i32 %21, 4
  %23 = and i32 %20, -113
  %24 = or i32 %23, %22
  store i32 %24, ptr %19, align 8
  %25 = load i32, ptr %6, align 4, !tbaa !3
  %26 = load ptr, ptr %7, align 8, !tbaa !27
  %27 = load i32, ptr %26, align 8
  %28 = and i32 %25, 33554431
  %29 = shl i32 %28, 7
  %30 = and i32 %27, 127
  %31 = or i32 %30, %29
  store i32 %31, ptr %26, align 8
  %32 = load ptr, ptr %7, align 8, !tbaa !27
  %33 = call i32 @Gli_ObjSize(ptr noundef %32)
  %34 = load ptr, ptr %4, align 8, !tbaa !7
  %35 = getelementptr inbounds nuw %struct.Gli_Man_t_, ptr %34, i32 0, i32 8
  %36 = load i32, ptr %35, align 4, !tbaa !38
  %37 = add nsw i32 %36, %33
  store i32 %37, ptr %35, align 4, !tbaa !38
  %38 = load ptr, ptr %4, align 8, !tbaa !7
  %39 = getelementptr inbounds nuw %struct.Gli_Man_t_, ptr %38, i32 0, i32 5
  %40 = load i32, ptr %39, align 8, !tbaa !39
  %41 = add nsw i32 %40, 1
  store i32 %41, ptr %39, align 8, !tbaa !39
  %42 = load ptr, ptr %7, align 8, !tbaa !27
  call void @llvm.lifetime.end.p0(i64 8, ptr %7) #10
  ret ptr %42
}

; Function Attrs: nounwind uwtable
define i32 @Gli_ManCreateCi(ptr noundef %0, i32 noundef %1) #0 {
  %3 = alloca ptr, align 8
  %4 = alloca i32, align 4
  %5 = alloca ptr, align 8
  store ptr %0, ptr %3, align 8, !tbaa !7
  store i32 %1, ptr %4, align 4, !tbaa !3
  call void @llvm.lifetime.start.p0(i64 8, ptr %5) #10
  %6 = load ptr, ptr %3, align 8, !tbaa !7
  %7 = load i32, ptr %4, align 4, !tbaa !3
  %8 = call ptr @Gli_ObjAlloc(ptr noundef %6, i32 noundef 0, i32 noundef %7)
  store ptr %8, ptr %5, align 8, !tbaa !27
  %9 = load ptr, ptr %5, align 8, !tbaa !27
  %10 = load i32, ptr %9, align 8
  %11 = and i32 %10, -2
  %12 = or i32 %11, 1
  store i32 %12, ptr %9, align 8
  %13 = load ptr, ptr %3, align 8, !tbaa !7
  %14 = getelementptr inbounds nuw %struct.Gli_Man_t_, ptr %13, i32 0, i32 0
  %15 = load ptr, ptr %14, align 8, !tbaa !14
  %16 = load ptr, ptr %5, align 8, !tbaa !27
  %17 = getelementptr inbounds nuw %struct.Gli_Obj_t_, ptr %16, i32 0, i32 1
  %18 = load i32, ptr %17, align 4, !tbaa !29
  call void @Vec_IntPush(ptr noundef %15, i32 noundef %18)
  %19 = load ptr, ptr %5, align 8, !tbaa !27
  %20 = getelementptr inbounds nuw %struct.Gli_Obj_t_, ptr %19, i32 0, i32 1
  %21 = load i32, ptr %20, align 4, !tbaa !29
  call void @llvm.lifetime.end.p0(i64 8, ptr %5) #10
  ret i32 %21
}