; Function Attrs: mustprogress nounwind willreturn uwtable
define i32 @Gli_ManCreateCi(ptr noundef captures(none) %0, i32 noundef %1) local_unnamed_addr #3 {
  %3 = getelementptr inbounds nuw i8, ptr %0, i64 52
  %4 = load i32, ptr %3, align 4, !tbaa !33
  %5 = getelementptr i8, ptr %0, i64 64
  %.val.i = load ptr, ptr %5, align 8, !tbaa !21
  %6 = sext i32 %4 to i64
  %7 = getelementptr inbounds i32, ptr %.val.i, i64 %6
  %8 = getelementptr inbounds nuw i8, ptr %7, i64 4
  store i32 %4, ptr %8, align 4, !tbaa !23
  %9 = load i32, ptr %7, align 8
  %10 = and i32 %9, 15
  %11 = shl i32 %1, 7
  %12 = or disjoint i32 %10, %11
  store i32 %12, ptr %7, align 8
  %13 = and i32 %1, 33554431
  %14 = load i32, ptr %3, align 4, !tbaa !33
  %narrow.i.i = add nuw nsw i32 %13, 8
  %15 = add nsw i32 %narrow.i.i, %14
  store i32 %15, ptr %3, align 4, !tbaa !33
  %16 = getelementptr inbounds nuw i8, ptr %0, i64 40
  %17 = load i32, ptr %16, align 8, !tbaa !34
  %18 = add nsw i32 %17, 1
  store i32 %18, ptr %16, align 8, !tbaa !34
  %19 = load i32, ptr %7, align 8
  %20 = or i32 %19, 1
  store i32 %20, ptr %7, align 8
  %21 = load ptr, ptr %0, align 8, !tbaa !15
  %22 = getelementptr inbounds nuw i8, ptr %21, i64 4
  %23 = load i32, ptr %22, align 4, !tbaa !11
  %24 = load i32, ptr %21, align 8, !tbaa !13
  %25 = icmp eq i32 %23, %24
  br i1 %25, label %26, label %.Vec_IntGrow.exit10_crit_edge.i

.Vec_IntGrow.exit10_crit_edge.i:                  ; preds = %2
  %.phi.trans.insert.i = getelementptr inbounds nuw i8, ptr %21, i64 8
  %.pre.i = load ptr, ptr %.phi.trans.insert.i, align 8, !tbaa !14
  br label %Vec_IntPush.exit

26:                                               ; preds = %2
  %27 = icmp slt i32 %23, 16
  br i1 %27, label %28, label %36

28:                                               ; preds = %26
  %29 = getelementptr inbounds nuw i8, ptr %21, i64 8
  %30 = load ptr, ptr %29, align 8, !tbaa !14
  %.not9.i.i = icmp eq ptr %30, null
  br i1 %.not9.i.i, label %33, label %31

31:                                               ; preds = %28
  %32 = tail call dereferenceable_or_null(64) ptr @realloc(ptr noundef nonnull %30, i64 noundef 64) #25
  br label %Vec_IntGrow.exit.i

33:                                               ; preds = %28
  %34 = tail call noalias dereferenceable_or_null(64) ptr @malloc(i64 noundef 64) #23
  br label %Vec_IntGrow.exit.i

Vec_IntGrow.exit.i:                               ; preds = %33, %31
  %35 = phi ptr [ %32, %31 ], [ %34, %33 ]
  store ptr %35, ptr %29, align 8, !tbaa !14
  store i32 16, ptr %21, align 8, !tbaa !13
  br label %Vec_IntPush.exit

36:                                               ; preds = %26
  %37 = shl nuw nsw i32 %23, 1
  %38 = getelementptr inbounds nuw i8, ptr %21, i64 8
  %39 = load ptr, ptr %38, align 8, !tbaa !14
  %.not9.i9.i = icmp eq ptr %39, null
  %40 = zext nneg i32 %37 to i64
  %41 = shl nuw nsw i64 %40, 2
  br i1 %.not9.i9.i, label %44, label %42

42:                                               ; preds = %36
  %43 = tail call ptr @realloc(ptr noundef nonnull %39, i64 noundef %41) #25
  br label %46

44:                                               ; preds = %36
  %45 = tail call noalias ptr @malloc(i64 noundef %41) #23
  br label %46

46:                                               ; preds = %44, %42
  %47 = phi ptr [ %43, %42 ], [ %45, %44 ]
  store ptr %47, ptr %38, align 8, !tbaa !14
  store i32 %37, ptr %21, align 8, !tbaa !13
  br label %Vec_IntPush.exit

Vec_IntPush.exit:                                 ; preds = %.Vec_IntGrow.exit10_crit_edge.i, %Vec_IntGrow.exit.i, %46
  %48 = phi ptr [ %.pre.i, %.Vec_IntGrow.exit10_crit_edge.i ], [ %47, %46 ], [ %35, %Vec_IntGrow.exit.i ]
  %49 = load i32, ptr %22, align 4, !tbaa !11
  %50 = add nsw i32 %49, 1
  store i32 %50, ptr %22, align 4, !tbaa !11
  %51 = sext i32 %49 to i64
  %52 = getelementptr inbounds i32, ptr %48, i64 %51
  store i32 %4, ptr %52, align 4, !tbaa !26
  %53 = load i32, ptr %8, align 4, !tbaa !23
  ret i32 %53
}